target datalayout = "e-m:e-p270:32:32-p271:32:32-p272:64:64-i64:64-i128:128-f80:128-n8:16:32:64-S128"
target triple = "x86_64-pc-linux-gnu"

%struct._packet_info = type { ptr, ptr, i32, i32, %struct.nstime_t, %struct.nstime_t, %struct.nstime_t, i8, ptr, ptr, ptr, ptr, %struct._address, %struct._address, %struct._address, %struct._address, %struct._address, %struct._address, i32, ptr, i8, [3 x i8], %struct.anon, i32, i32, i32, i32, ptr, i8, ptr, ptr, i16, i16, i32, i32, i16, i32, i32, ptr, ptr, ptr, i8, i8, i16, i16, i16, i32, i16, i16, ptr, ptr, ptr, ptr, ptr, i32, i32 }
%struct.nstime_t = type { i64, i32 }
%struct._address = type { i32, i32, ptr, ptr }
%struct.anon = type { i8, [3 x i8] }

@.str.156 = private unnamed_addr constant [11 x i8] c"Modbus/UDP\00", align 1
@proto_mbudp = internal global i32 0, align 4
@global_mbus_udp_ports = internal global ptr null, align 8

; Function Attrs: null_pointer_is_valid sspstrong uwtable
define internal i32 @dissect_mbudp(ptr noundef %0, ptr noundef %1, ptr noundef %2, ptr noundef %3) #0 {
  %5 = alloca i32, align 4
  %6 = alloca ptr, align 8
  %7 = alloca ptr, align 8
  %8 = alloca ptr, align 8
  %9 = alloca ptr, align 8
  store ptr %0, ptr %6, align 8
  store ptr %1, ptr %7, align 8
  store ptr %2, ptr %8, align 8
  store ptr %3, ptr %9, align 8
  %10 = load ptr, ptr %6, align 8
  %11 = call zeroext i1 @tvb_bytes_exist(ptr noundef %10, i32 noundef 0, i32 noundef 8)
  br i1 %11, label %13, label %12

12:                                               ; preds = %4
  store i32 0, ptr %5, align 4
  br label %38

13:                                               ; preds = %4
  %14 = load ptr, ptr %6, align 8
  %15 = call zeroext i16 @tvb_get_ntohs(ptr noundef %14, i32 noundef 2)
  %16 = zext i16 %15 to i32
  %17 = icmp ne i32 %16, 0
  br i1 %17, label %18, label %19

18:                                               ; preds = %13
  store i32 0, ptr %5, align 4
  br label %38

19:                                               ; preds = %13
  %20 = load ptr, ptr %6, align 8
  %21 = call zeroext i16 @tvb_get_ntohs(ptr noundef %20, i32 noundef 4)
  %22 = zext i16 %21 to i32
  %23 = icmp slt i32 %22, 2
  br i1 %23, label %24, label %25

24:                                               ; preds = %19
  store i32 0, ptr %5, align 4
  br label %38

25:                                               ; preds = %19
  %26 = load ptr, ptr %7, align 8
  %27 = getelementptr inbounds nuw %struct._packet_info, ptr %26, i32 0, i32 1
  %28 = load ptr, ptr %27, align 8
  call void @col_set_str(ptr noundef %28, i32 noundef 35, ptr noundef @.str.156)
  %29 = load ptr, ptr %7, align 8
  %30 = getelementptr inbounds nuw %struct._packet_info, ptr %29, i32 0, i32 1
  %31 = load ptr, ptr %30, align 8
  call void @col_clear(ptr noundef %31, i32 noundef 25)
  %32 = load ptr, ptr %6, align 8
  %33 = load ptr, ptr %7, align 8
  %34 = load ptr, ptr %8, align 8
  %35 = load i32, ptr @proto_mbudp, align 4
  %36 = load ptr, ptr @global_mbus_udp_ports, align 8
  %37 = call i32 @dissect_mbtcp_pdu_common(ptr noundef %32, ptr noundef %33, ptr noundef %34, i32 noundef %35, ptr noundef %36)
  store i32 %37, ptr %5, align 4
  br label %38

38:                                               ; preds = %25, %24, %18, %12
  %39 = load i32, ptr %5, align 4
  ret i32 %39
}