; Function Attrs: null_pointer_is_valid sspstrong uwtable
define internal i32 @dissect_mbudp(ptr noundef %0, ptr noundef %1, ptr noundef %2, ptr readnone captures(none) %3) #0 {
  %5 = tail call zeroext i1 @tvb_bytes_exist(ptr noundef %0, i32 noundef 0, i32 noundef 8)
  br i1 %5, label %6, label %18

6:                                                ; preds = %4
  %7 = tail call zeroext i16 @tvb_get_ntohs(ptr noundef %0, i32 noundef 2)
  %.not = icmp eq i16 %7, 0
  br i1 %.not, label %8, label %18

8:                                                ; preds = %6
  %9 = tail call zeroext i16 @tvb_get_ntohs(ptr noundef %0, i32 noundef 4)
  %10 = icmp ult i16 %9, 2
  br i1 %10, label %18, label %11

11:                                               ; preds = %8
  %12 = getelementptr inbounds nuw i8, ptr %1, i64 8
  %13 = load ptr, ptr %12, align 8
  tail call void @col_set_str(ptr noundef %13, i32 noundef 35, ptr noundef nonnull @.str.156)
  %14 = load ptr, ptr %12, align 8
  tail call void @col_clear(ptr noundef %14, i32 noundef 25)
  %15 = load i32, ptr @proto_mbudp, align 4
  %16 = load ptr, ptr @global_mbus_udp_ports, align 8
  %17 = tail call fastcc i32 @dissect_mbtcp_pdu_common(ptr noundef %0, ptr noundef %1, ptr noundef %2, i32 noundef %15, ptr noundef %16)
  br label %18

18:                                               ; preds = %8, %6, %4, %11
  %.0 = phi i32 [ %17, %11 ], [ 0, %4 ], [ 0, %6 ], [ 0, %8 ]
  ret i32 %.0
}